; Function Attrs: nounwind uwtable
define hidden ptr @_Py_GetLocaleEncoding() local_unnamed_addr #0 {
  %1 = alloca ptr, align 8
  %2 = tail call ptr @nl_langinfo(i32 noundef 14) #17
  %.not = icmp eq ptr %2, null
  br i1 %.not, label %6, label %3

3:                                                ; preds = %0
  %4 = load i8, ptr %2, align 1, !tbaa !175
  %5 = icmp eq i8 %4, 0
  br i1 %5, label %6, label %8

6:                                                ; preds = %3, %0
  %7 = tail call ptr @_PyMem_RawWcsdup(ptr noundef nonnull @.str) #17
  br label %12

8:                                                ; preds = %3
  call void @llvm.lifetime.start.p0(i64 8, ptr nonnull %1) #17
  %9 = call fastcc i32 @decode_current_locale(ptr noundef nonnull %2, ptr noundef nonnull %1, ptr noundef null, ptr noundef null, i32 noundef 2)
  %10 = icmp slt i32 %9, 0
  %11 = load ptr, ptr %1, align 8
  %.1 = select i1 %10, ptr null, ptr %11
  call void @llvm.lifetime.end.p0(i64 8, ptr nonnull %1) #17
  br label %12

12:                                               ; preds = %8, %6
  %.0 = phi ptr [ %7, %6 ], [ %.1, %8 ]
  ret ptr %.0
}